target datalayout = "e-m:e-p270:32:32-p271:32:32-p272:64:64-i64:64-i128:128-f80:128-n8:16:32:64-S128"
target triple = "x86_64-pc-linux-gnu"

%struct.GetBitContext = type { ptr, ptr, i32, i32, i32 }
%struct.MPEG2RawExtraInformation = type { ptr, ptr, i64 }
%struct.AVBufferRef = type { ptr, ptr, i64 }

; Function Attrs: alwaysinline nounwind willreturn memory(none) uwtable
define internal i32 @av_bswap32(i32 noundef %0) #4 {
  %2 = alloca i32, align 4
  store i32 %0, ptr %2, align 4, !tbaa !11
  %3 = load i32, ptr %2, align 4, !tbaa !11
  %4 = shl i32 %3, 8
  %5 = and i32 %4, 65280
  %6 = load i32, ptr %2, align 4, !tbaa !11
  %7 = lshr i32 %6, 8
  %8 = and i32 %7, 255
  %9 = or i32 %5, %8
  %10 = shl i32 %9, 16
  %11 = load i32, ptr %2, align 4, !tbaa !11
  %12 = lshr i32 %11, 16
  %13 = shl i32 %12, 8
  %14 = and i32 %13, 65280
  %15 = load i32, ptr %2, align 4, !tbaa !11
  %16 = lshr i32 %15, 16
  %17 = lshr i32 %16, 8
  %18 = and i32 %17, 255
  %19 = or i32 %14, %18
  %20 = or i32 %10, %19
  ret i32 %20
}

; Function Attrs: inlinehint nounwind uwtable
define internal i32 @get_bits_count(ptr noundef %0) #3 {
  %2 = alloca ptr, align 8
  store ptr %0, ptr %2, align 8, !tbaa !63
  %3 = load ptr, ptr %2, align 8, !tbaa !63
  %4 = getelementptr inbounds nuw %struct.GetBitContext, ptr %3, i32 0, i32 2
  %5 = load i32, ptr %4, align 8, !tbaa !70
  ret i32 %5
}

; Function Attrs: inlinehint nounwind uwtable
define internal void @skip_bits(ptr noundef %0, i32 noundef %1) #3 {
  %3 = alloca ptr, align 8
  %4 = alloca i32, align 4
  %5 = alloca i32, align 4
  %6 = alloca i32, align 4
  store ptr %0, ptr %3, align 8, !tbaa !63
  store i32 %1, ptr %4, align 4, !tbaa !11
  call void @llvm.lifetime.start.p0(i64 4, ptr %5) #8
  %7 = load ptr, ptr %3, align 8, !tbaa !63
  %8 = getelementptr inbounds nuw %struct.GetBitContext, ptr %7, i32 0, i32 2
  %9 = load i32, ptr %8, align 8, !tbaa !70
  store i32 %9, ptr %5, align 4, !tbaa !11
  call void @llvm.lifetime.start.p0(i64 4, ptr %6) #8
  %10 = load ptr, ptr %3, align 8, !tbaa !63
  %11 = getelementptr inbounds nuw %struct.GetBitContext, ptr %10, i32 0, i32 4
  %12 = load i32, ptr %11, align 8, !tbaa !68
  store i32 %12, ptr %6, align 4, !tbaa !11
  %13 = load i32, ptr %6, align 4, !tbaa !11
  %14 = load i32, ptr %5, align 4, !tbaa !11
  %15 = load i32, ptr %4, align 4, !tbaa !11
  %16 = add i32 %14, %15
  %17 = icmp ugt i32 %13, %16
  br i1 %17, label %18, label %22

18:                                               ; preds = %2
  %19 = load i32, ptr %5, align 4, !tbaa !11
  %20 = load i32, ptr %4, align 4, !tbaa !11
  %21 = add i32 %19, %20
  br label %24

22:                                               ; preds = %2
  %23 = load i32, ptr %6, align 4, !tbaa !11
  br label %24

24:                                               ; preds = %22, %18
  %25 = phi i32 [ %21, %18 ], [ %23, %22 ]
  store i32 %25, ptr %5, align 4, !tbaa !11
  %26 = load i32, ptr %5, align 4, !tbaa !11
  %27 = load ptr, ptr %3, align 8, !tbaa !63
  %28 = getelementptr inbounds nuw %struct.GetBitContext, ptr %27, i32 0, i32 2
  store i32 %26, ptr %28, align 8, !tbaa !70
  call void @llvm.lifetime.end.p0(i64 4, ptr %6) #8
  call void @llvm.lifetime.end.p0(i64 4, ptr %5) #8
  ret void
}

; Function Attrs: inlinehint nounwind uwtable
define internal i32 @show_bits(ptr noundef %0, i32 noundef %1) #3 {
  %3 = alloca ptr, align 8
  %4 = alloca i32, align 4
  %5 = alloca i32, align 4
  %6 = alloca i32, align 4
  %7 = alloca i32, align 4
  store ptr %0, ptr %3, align 8, !tbaa !63
  store i32 %1, ptr %4, align 4, !tbaa !11
  call void @llvm.lifetime.start.p0(i64 4, ptr %5) #8
  call void @llvm.lifetime.start.p0(i64 4, ptr %6) #8
  %8 = load ptr, ptr %3, align 8, !tbaa !63
  %9 = getelementptr inbounds nuw %struct.GetBitContext, ptr %8, i32 0, i32 2
  %10 = load i32, ptr %9, align 8, !tbaa !70
  store i32 %10, ptr %6, align 4, !tbaa !11
  call void @llvm.lifetime.start.p0(i64 4, ptr %7) #8
  %11 = load ptr, ptr %3, align 8, !tbaa !63
  %12 = getelementptr inbounds nuw %struct.GetBitContext, ptr %11, i32 0, i32 0
  %13 = load ptr, ptr %12, align 8, !tbaa !65
  %14 = load i32, ptr %6, align 4, !tbaa !11
  %15 = lshr i32 %14, 3
  %16 = zext i32 %15 to i64
  %17 = getelementptr inbounds nuw i8, ptr %13, i64 %16
  %18 = load i32, ptr %17, align 1, !tbaa !61
  %19 = call i32 @av_bswap32(i32 noundef %18) #10
  %20 = load i32, ptr %6, align 4, !tbaa !11
  %21 = and i32 %20, 7
  %22 = shl i32 %19, %21
  %23 = lshr i32 %22, 0
  store i32 %23, ptr %7, align 4, !tbaa !11
  %24 = load i32, ptr %7, align 4, !tbaa !11
  %25 = load i32, ptr %4, align 4, !tbaa !11
  %26 = sub nsw i32 32, %25
  %27 = lshr i32 %24, %26
  store i32 %27, ptr %5, align 4, !tbaa !11
  %28 = load i32, ptr %5, align 4, !tbaa !11
  call void @llvm.lifetime.end.p0(i64 4, ptr %7) #8
  call void @llvm.lifetime.end.p0(i64 4, ptr %6) #8
  call void @llvm.lifetime.end.p0(i64 4, ptr %5) #8
  ret i32 %28
}

; Function Attrs: inlinehint nounwind uwtable
define internal i32 @get_bits_left(ptr noundef %0) #3 {
  %2 = alloca ptr, align 8
  store ptr %0, ptr %2, align 8, !tbaa !63
  %3 = load ptr, ptr %2, align 8, !tbaa !63
  %4 = getelementptr inbounds nuw %struct.GetBitContext, ptr %3, i32 0, i32 3
  %5 = load i32, ptr %4, align 4, !tbaa !67
  %6 = load ptr, ptr %2, align 8, !tbaa !63
  %7 = call i32 @get_bits_count(ptr noundef %6)
  %8 = sub nsw i32 %5, %7
  ret i32 %8
}

; Function Attrs: nounwind uwtable
define internal i32 @cbs_mpeg2_read_extra_information(ptr noundef %0, ptr noundef %1, ptr noundef %2, ptr noundef %3, ptr noundef %4) #0 {
  %6 = alloca i32, align 4
  %7 = alloca ptr, align 8
  %8 = alloca ptr, align 8
  %9 = alloca ptr, align 8
  %10 = alloca ptr, align 8
  %11 = alloca ptr, align 8
  %12 = alloca i32, align 4
  %13 = alloca i64, align 8
  %14 = alloca %struct.GetBitContext, align 8
  %15 = alloca i8, align 1
  %16 = alloca i32, align 4
  %17 = alloca i32, align 4
  %18 = alloca i32, align 4
  %19 = alloca i32, align 4
  %20 = alloca [2 x i32], align 4
  %21 = alloca i32, align 4
  %22 = alloca i32, align 4
  store ptr %0, ptr %7, align 8, !tbaa !4
  store ptr %1, ptr %8, align 8, !tbaa !63
  store ptr %2, ptr %9, align 8, !tbaa !132
  store ptr %3, ptr %10, align 8, !tbaa !20
  store ptr %4, ptr %11, align 8, !tbaa !20
  call void @llvm.lifetime.start.p0(i64 4, ptr %12) #8
  call void @llvm.lifetime.start.p0(i64 8, ptr %13) #8
  call void @llvm.lifetime.start.p0(i64 32, ptr %14) #8
  %23 = load ptr, ptr %8, align 8, !tbaa !63
  call void @llvm.memcpy.p0.p0.i64(ptr align 8 %14, ptr align 8 %23, i64 32, i1 false), !tbaa.struct !134
  call void @llvm.lifetime.start.p0(i64 1, ptr %15) #8
  store i64 0, ptr %13, align 8, !tbaa !21
  br label %24

24:                                               ; preds = %38, %5
  %25 = load ptr, ptr %8, align 8, !tbaa !63
  %26 = call i32 @get_bits_left(ptr noundef %25)
  %27 = icmp sge i32 %26, 1
  br i1 %27, label %28, label %34

28:                                               ; preds = %24
  %29 = load ptr, ptr %8, align 8, !tbaa !63
  %30 = call i32 @show_bits(ptr noundef %29, i32 noundef 1)
  %31 = trunc i32 %30 to i8
  store i8 %31, ptr %15, align 1, !tbaa !61
  %32 = zext i8 %31 to i32
  %33 = icmp eq i32 %32, 1
  br label %34

34:                                               ; preds = %28, %24
  %35 = phi i1 [ false, %24 ], [ %33, %28 ]
  br i1 %35, label %36, label %41

36:                                               ; preds = %34
  %37 = load ptr, ptr %8, align 8, !tbaa !63
  call void @skip_bits(ptr noundef %37, i32 noundef 9)
  br label %38

38:                                               ; preds = %36
  %39 = load i64, ptr %13, align 8, !tbaa !21
  %40 = add i64 %39, 1
  store i64 %40, ptr %13, align 8, !tbaa !21
  br label %24, !llvm.loop !135

41:                                               ; preds = %34
  %42 = load i64, ptr %13, align 8, !tbaa !21
  %43 = load ptr, ptr %9, align 8, !tbaa !132
  %44 = getelementptr inbounds nuw %struct.MPEG2RawExtraInformation, ptr %43, i32 0, i32 2
  store i64 %42, ptr %44, align 8, !tbaa !136
  %45 = load i64, ptr %13, align 8, !tbaa !21
  %46 = icmp ugt i64 %45, 0
  br i1 %46, label %47, label %67

47:                                               ; preds = %41
  %48 = load ptr, ptr %8, align 8, !tbaa !63
  call void @llvm.memcpy.p0.p0.i64(ptr align 8 %48, ptr align 8 %14, i64 32, i1 false), !tbaa.struct !134
  %49 = load i64, ptr %13, align 8, !tbaa !21
  %50 = add i64 %49, 64
  %51 = call ptr @av_buffer_allocz(i64 noundef %50)
  %52 = load ptr, ptr %9, align 8, !tbaa !132
  %53 = getelementptr inbounds nuw %struct.MPEG2RawExtraInformation, ptr %52, i32 0, i32 1
  store ptr %51, ptr %53, align 8, !tbaa !137
  %54 = load ptr, ptr %9, align 8, !tbaa !132
  %55 = getelementptr inbounds nuw %struct.MPEG2RawExtraInformation, ptr %54, i32 0, i32 1
  %56 = load ptr, ptr %55, align 8, !tbaa !137
  %57 = icmp ne ptr %56, null
  br i1 %57, label %59, label %58

58:                                               ; preds = %47
  store i32 -12, ptr %6, align 4
  store i32 1, ptr %16, align 4
  br label %158

59:                                               ; preds = %47
  %60 = load ptr, ptr %9, align 8, !tbaa !132
  %61 = getelementptr inbounds nuw %struct.MPEG2RawExtraInformation, ptr %60, i32 0, i32 1
  %62 = load ptr, ptr %61, align 8, !tbaa !137
  %63 = getelementptr inbounds nuw %struct.AVBufferRef, ptr %62, i32 0, i32 1
  %64 = load ptr, ptr %63, align 8, !tbaa !58
  %65 = load ptr, ptr %9, align 8, !tbaa !132
  %66 = getelementptr inbounds nuw %struct.MPEG2RawExtraInformation, ptr %65, i32 0, i32 0
  store ptr %64, ptr %66, align 8, !tbaa !138
  br label %67

67:                                               ; preds = %59, %41
  store i64 0, ptr %13, align 8, !tbaa !21
  br label %68

68:                                               ; preds = %129, %67
  %69 = load i64, ptr %13, align 8, !tbaa !21
  %70 = load ptr, ptr %9, align 8, !tbaa !132
  %71 = getelementptr inbounds nuw %struct.MPEG2RawExtraInformation, ptr %70, i32 0, i32 2
  %72 = load i64, ptr %71, align 8, !tbaa !136
  %73 = icmp ult i64 %69, %72
  br i1 %73, label %74, label %132

74:                                               ; preds = %68
  br label %75

75:                                               ; preds = %74
  call void @llvm.lifetime.start.p0(i64 4, ptr %17) #8
  store i32 1, ptr %17, align 4, !tbaa !11
  br label %76

76:                                               ; preds = %75
  call void @llvm.lifetime.start.p0(i64 4, ptr %18) #8
  br label %77

77:                                               ; preds = %76
  %78 = load ptr, ptr %7, align 8, !tbaa !4
  %79 = load ptr, ptr %8, align 8, !tbaa !63
  %80 = load ptr, ptr %11, align 8, !tbaa !20
  %81 = call i32 @ff_cbs_read_unsigned(ptr noundef %78, ptr noundef %79, i32 noundef 1, ptr noundef %80, ptr noundef null, ptr noundef %18, i32 noundef 1, i32 noundef 1)
  store i32 %81, ptr %12, align 4, !tbaa !11
  %82 = load i32, ptr %12, align 4, !tbaa !11
  %83 = icmp slt i32 %82, 0
  br i1 %83, label %84, label %86

84:                                               ; preds = %77
  %85 = load i32, ptr %12, align 4, !tbaa !11
  store i32 %85, ptr %6, align 4
  store i32 1, ptr %16, align 4
  br label %90

86:                                               ; preds = %77
  br label %87

87:                                               ; preds = %86
  br label %88

88:                                               ; preds = %87
  %89 = load i32, ptr %18, align 4, !tbaa !11
  store i32 %89, ptr %17, align 4, !tbaa !11
  store i32 0, ptr %16, align 4
  br label %90

90:                                               ; preds = %88, %84
  call void @llvm.lifetime.end.p0(i64 4, ptr %18) #8
  %91 = load i32, ptr %16, align 4
  switch i32 %91, label %95 [
    i32 0, label %92
  ]

92:                                               ; preds = %90
  br label %93

93:                                               ; preds = %92
  br label %94

94:                                               ; preds = %93
  store i32 0, ptr %16, align 4
  br label %95

95:                                               ; preds = %94, %90
  call void @llvm.lifetime.end.p0(i64 4, ptr %17) #8
  %96 = load i32, ptr %16, align 4
  switch i32 %96, label %158 [
    i32 0, label %97
  ]

97:                                               ; preds = %95
  br label %98

98:                                               ; preds = %97
  br label %99

99:                                               ; preds = %98
  br label %100

100:                                              ; preds = %99
  call void @llvm.lifetime.start.p0(i64 4, ptr %19) #8
  br label %101

101:                                              ; preds = %100
  %102 = load ptr, ptr %7, align 8, !tbaa !4
  %103 = load ptr, ptr %8, align 8, !tbaa !63
  %104 = load ptr, ptr %10, align 8, !tbaa !20
  store i32 1, ptr %20, align 4, !tbaa !11
  %105 = getelementptr inbounds i32, ptr %20, i64 1
  %106 = load i64, ptr %13, align 8, !tbaa !21
  %107 = trunc i64 %106 to i32
  store i32 %107, ptr %105, align 4, !tbaa !11
  %108 = getelementptr inbounds [2 x i32], ptr %20, i64 0, i64 0
  %109 = call i32 @ff_cbs_read_unsigned(ptr noundef %102, ptr noundef %103, i32 noundef 8, ptr noundef %104, ptr noundef %108, ptr noundef %19, i32 noundef 0, i32 noundef 255)
  store i32 %109, ptr %12, align 4, !tbaa !11
  %110 = load i32, ptr %12, align 4, !tbaa !11
  %111 = icmp slt i32 %110, 0
  br i1 %111, label %112, label %114

112:                                              ; preds = %101
  %113 = load i32, ptr %12, align 4, !tbaa !11
  store i32 %113, ptr %6, align 4
  store i32 1, ptr %16, align 4
  br label %124

114:                                              ; preds = %101
  br label %115

115:                                              ; preds = %114
  br label %116

116:                                              ; preds = %115
  %117 = load i32, ptr %19, align 4, !tbaa !11
  %118 = trunc i32 %117 to i8
  %119 = load ptr, ptr %9, align 8, !tbaa !132
  %120 = getelementptr inbounds nuw %struct.MPEG2RawExtraInformation, ptr %119, i32 0, i32 0
  %121 = load ptr, ptr %120, align 8, !tbaa !138
  %122 = load i64, ptr %13, align 8, !tbaa !21
  %123 = getelementptr inbounds nuw i8, ptr %121, i64 %122
  store i8 %118, ptr %123, align 1, !tbaa !61
  store i32 0, ptr %16, align 4
  br label %124

124:                                              ; preds = %116, %112
  call void @llvm.lifetime.end.p0(i64 4, ptr %19) #8
  %125 = load i32, ptr %16, align 4
  switch i32 %125, label %158 [
    i32 0, label %126
  ]

126:                                              ; preds = %124
  br label %127

127:                                              ; preds = %126
  br label %128

128:                                              ; preds = %127
  br label %129

129:                                              ; preds = %128
  %130 = load i64, ptr %13, align 8, !tbaa !21
  %131 = add i64 %130, 1
  store i64 %131, ptr %13, align 8, !tbaa !21
  br label %68, !llvm.loop !139

132:                                              ; preds = %68
  br label %133

133:                                              ; preds = %132
  call void @llvm.lifetime.start.p0(i64 4, ptr %21) #8
  store i32 0, ptr %21, align 4, !tbaa !11
  br label %134

134:                                              ; preds = %133
  call void @llvm.lifetime.start.p0(i64 4, ptr %22) #8
  br label %135

135:                                              ; preds = %134
  %136 = load ptr, ptr %7, align 8, !tbaa !4
  %137 = load ptr, ptr %8, align 8, !tbaa !63
  %138 = load ptr, ptr %11, align 8, !tbaa !20
  %139 = call i32 @ff_cbs_read_unsigned(ptr noundef %136, ptr noundef %137, i32 noundef 1, ptr noundef %138, ptr noundef null, ptr noundef %22, i32 noundef 0, i32 noundef 0)
  store i32 %139, ptr %12, align 4, !tbaa !11
  %140 = load i32, ptr %12, align 4, !tbaa !11
  %141 = icmp slt i32 %140, 0
  br i1 %141, label %142, label %144

142:                                              ; preds = %135
  %143 = load i32, ptr %12, align 4, !tbaa !11
  store i32 %143, ptr %6, align 4
  store i32 1, ptr %16, align 4
  br label %148

144:                                              ; preds = %135
  br label %145

145:                                              ; preds = %144
  br label %146

146:                                              ; preds = %145
  %147 = load i32, ptr %22, align 4, !tbaa !11
  store i32 %147, ptr %21, align 4, !tbaa !11
  store i32 0, ptr %16, align 4
  br label %148

148:                                              ; preds = %146, %142
  call void @llvm.lifetime.end.p0(i64 4, ptr %22) #8
  %149 = load i32, ptr %16, align 4
  switch i32 %149, label %153 [
    i32 0, label %150
  ]

150:                                              ; preds = %148
  br label %151

151:                                              ; preds = %150
  br label %152

152:                                              ; preds = %151
  store i32 0, ptr %16, align 4
  br label %153

153:                                              ; preds = %152, %148
  call void @llvm.lifetime.end.p0(i64 4, ptr %21) #8
  %154 = load i32, ptr %16, align 4
  switch i32 %154, label %158 [
    i32 0, label %155
  ]

155:                                              ; preds = %153
  br label %156

156:                                              ; preds = %155
  br label %157

157:                                              ; preds = %156
  store i32 0, ptr %6, align 4
  store i32 1, ptr %16, align 4
  br label %158

158:                                              ; preds = %157, %153, %124, %95, %58
  call void @llvm.lifetime.end.p0(i64 1, ptr %15) #8
  call void @llvm.lifetime.end.p0(i64 32, ptr %14) #8
  call void @llvm.lifetime.end.p0(i64 8, ptr %13) #8
  call void @llvm.lifetime.end.p0(i64 4, ptr %12) #8
  %159 = load i32, ptr %6, align 4
  ret i32 %159
}