; Function Attrs: nounwind uwtable
define internal fastcc range(i32 -2147483648, 1) i32 @cbs_mpeg2_read_extra_information(ptr noundef %0, ptr noundef nonnull %1, ptr noundef captures(none) %2, ptr noundef %3, ptr noundef %4) unnamed_addr #0 {
  %6 = alloca %struct.GetBitContext, align 8
  %7 = alloca i32, align 4
  %8 = alloca i32, align 4
  %9 = alloca [2 x i32], align 4
  %10 = alloca i32, align 4
  call void @llvm.lifetime.start.p0(i64 32, ptr nonnull %6)
  call void @llvm.memcpy.p0.p0.i64(ptr noundef nonnull align 8 dereferenceable(32) %6, ptr noundef nonnull align 8 dereferenceable(32) %1, i64 32, i1 false), !tbaa.struct !173
  %11 = getelementptr i8, ptr %1, i64 16
  %12 = getelementptr i8, ptr %1, i64 20
  %.val57 = load i32, ptr %12, align 4, !tbaa !24
  %.promoted = load i32, ptr %11, align 8, !tbaa !27
  %13 = icmp sgt i32 %.val57, %.promoted
  br i1 %13, label %.lr.ph, label %.critedge.thread

.critedge.thread:                                 ; preds = %5
  %14 = getelementptr inbounds nuw i8, ptr %2, i64 16
  store i64 0, ptr %14, align 8, !tbaa !149
  br label %._crit_edge

.lr.ph:                                           ; preds = %5
  %.val58 = load ptr, ptr %1, align 8, !tbaa !22
  %15 = getelementptr inbounds nuw i8, ptr %1, i64 24
  br label %16

16:                                               ; preds = %.lr.ph, %25
  %.04864 = phi i64 [ 0, %.lr.ph ], [ %29, %25 ]
  %17 = phi i32 [ %.promoted, %.lr.ph ], [ %28, %25 ]
  %18 = lshr i32 %17, 3
  %19 = zext nneg i32 %18 to i64
  %20 = getelementptr inbounds nuw i8, ptr %.val58, i64 %19
  %21 = load i32, ptr %20, align 1, !tbaa !45
  %22 = tail call i32 @llvm.bswap.i32(i32 %21)
  %23 = and i32 %17, 7
  %24 = shl i32 %22, %23
  %.not = icmp sgt i32 %24, -1
  br i1 %.not, label %.critedge, label %25

25:                                               ; preds = %16
  %26 = load i32, ptr %15, align 8, !tbaa !25
  %27 = add i32 %17, 9
  %28 = tail call i32 @llvm.umin.i32(i32 %26, i32 %27)
  store i32 %28, ptr %11, align 8, !tbaa !27
  %29 = add i64 %.04864, 1
  %30 = icmp sgt i32 %.val57, %28
  br i1 %30, label %16, label %.critedge, !llvm.loop !175

.critedge:                                        ; preds = %16, %25
  %.048.lcssa = phi i64 [ %.04864, %16 ], [ %29, %25 ]
  %31 = getelementptr inbounds nuw i8, ptr %2, i64 16
  store i64 %.048.lcssa, ptr %31, align 8, !tbaa !149
  %.not54 = icmp eq i64 %.048.lcssa, 0
  br i1 %.not54, label %._crit_edge, label %32

32:                                               ; preds = %.critedge
  call void @llvm.memcpy.p0.p0.i64(ptr noundef nonnull align 8 dereferenceable(32) %1, ptr noundef nonnull align 8 dereferenceable(32) %6, i64 32, i1 false), !tbaa.struct !173
  %33 = add i64 %.048.lcssa, 64
  %34 = tail call ptr @av_buffer_allocz(i64 noundef %33) #7
  %35 = getelementptr inbounds nuw i8, ptr %2, i64 8
  store ptr %34, ptr %35, align 8, !tbaa !176
  %.not55 = icmp eq ptr %34, null
  br i1 %.not55, label %.loopexit, label %36

36:                                               ; preds = %32
  %37 = getelementptr inbounds nuw i8, ptr %34, i64 8
  %38 = load ptr, ptr %37, align 8, !tbaa !69
  store ptr %38, ptr %2, align 8, !tbaa !151
  %.pre = load i64, ptr %31, align 8, !tbaa !149
  %39 = icmp eq i64 %.pre, 0
  br i1 %39, label %._crit_edge, label %.lr.ph68

.lr.ph68:                                         ; preds = %36
  %40 = getelementptr inbounds nuw i8, ptr %9, i64 4
  br label %41

41:                                               ; preds = %.lr.ph68, %49
  %.14967 = phi i64 [ 0, %.lr.ph68 ], [ %54, %49 ]
  call void @llvm.lifetime.start.p0(i64 4, ptr nonnull %7) #7
  %42 = call i32 @ff_cbs_read_unsigned(ptr noundef %0, ptr noundef nonnull %1, i32 noundef 1, ptr noundef %4, ptr noundef null, ptr noundef nonnull %7, i32 noundef 1, i32 noundef 1) #7
  %43 = icmp sgt i32 %42, -1
  call void @llvm.lifetime.end.p0(i64 4, ptr nonnull %7) #7
  br i1 %43, label %44, label %.loopexit

44:                                               ; preds = %41
  call void @llvm.lifetime.start.p0(i64 4, ptr nonnull %8) #7
  store i32 1, ptr %9, align 4, !tbaa !4
  %45 = trunc i64 %.14967 to i32
  store i32 %45, ptr %40, align 4, !tbaa !4
  %46 = call i32 @ff_cbs_read_unsigned(ptr noundef %0, ptr noundef nonnull %1, i32 noundef 8, ptr noundef %3, ptr noundef nonnull %9, ptr noundef nonnull %8, i32 noundef 0, i32 noundef 255) #7
  %47 = icmp sgt i32 %46, -1
  br i1 %47, label %49, label %48

48:                                               ; preds = %44
  call void @llvm.lifetime.end.p0(i64 4, ptr nonnull %8) #7
  br label %.loopexit

49:                                               ; preds = %44
  %50 = load i32, ptr %8, align 4, !tbaa !4
  %51 = trunc i32 %50 to i8
  %52 = load ptr, ptr %2, align 8, !tbaa !151
  %53 = getelementptr inbounds nuw i8, ptr %52, i64 %.14967
  store i8 %51, ptr %53, align 1, !tbaa !45
  call void @llvm.lifetime.end.p0(i64 4, ptr nonnull %8) #7
  %54 = add nuw i64 %.14967, 1
  %55 = load i64, ptr %31, align 8, !tbaa !149
  %56 = icmp ult i64 %54, %55
  br i1 %56, label %41, label %._crit_edge, !llvm.loop !177

._crit_edge:                                      ; preds = %49, %.critedge.thread, %.critedge, %36
  call void @llvm.lifetime.start.p0(i64 4, ptr nonnull %10) #7
  %57 = call i32 @ff_cbs_read_unsigned(ptr noundef %0, ptr noundef nonnull %1, i32 noundef 1, ptr noundef %4, ptr noundef null, ptr noundef nonnull %10, i32 noundef 0, i32 noundef 0) #7
  call void @llvm.lifetime.end.p0(i64 4, ptr nonnull %10) #7
  %spec.select = call i32 @llvm.smin.i32(i32 %57, i32 0)
  br label %.loopexit

.loopexit:                                        ; preds = %41, %48, %._crit_edge, %32
  %.045 = phi i32 [ %46, %48 ], [ -12, %32 ], [ %spec.select, %._crit_edge ], [ %42, %41 ]
  call void @llvm.lifetime.end.p0(i64 32, ptr nonnull %6)
  ret i32 %.045
}